(lp1
((lp2
(dp3
(F0.45000000000000001
F0.59999999999999998
tp4
F1
sa(dp5
(F0.33000000000000002
F0.25
tp6
F1
sa(dp7
(F0.33000000000000002
F0.40000000000000002
tp8
F1
sa(dp9
(F0.33000000000000002
F0.25
tp10
F1
saI0
tp11
a((lp12
(dp13
(F0.45000000000000001
F0.80000000000000004
tp14
F1
sa(dp15
(F0.33000000000000002
F0.25
tp16
F1
sa(dp17
(F0.33000000000000002
F0.59999999999999998
tp18
F1
sa(dp19
(F0.33000000000000002
F0.25
tp20
F1
saI0
tp21
a((lp22
(dp23
(F0.45000000000000001
F0.25
tp24
F1
sa(dp25
(F0.33000000000000002
F0.25
tp26
F1
sa(dp27
(F0.33000000000000002
F0.59999999999999998
tp28
F1
sa(dp29
(F0.33000000000000002
F0.25
tp30
F1
saI0
tp31
a((lp32
(dp33
(F0.45000000000000001
F0.80000000000000004
tp34
F1
sa(dp35
(F0.33000000000000002
F0.25
tp36
F1
sa(dp37
(F0.33000000000000002
F0.59999999999999998
tp38
F1
sa(dp39
(F0.80000000000000004
F0.25
tp40
F1
sa(dp41
(F0.33000000000000002
F0.25
tp42
F1
saF0.20000000000000001
tp43
a((lp44
(dp45
(F0.45000000000000001
F0.80000000000000004
tp46
F1
sa(dp47
(F0.80000000000000004
F0.25
tp48
F1
sa(dp49
(F0.33000000000000002
F0.25
tp50
F1
sa(dp51
(F0.33000000000000002
F0.59999999999999998
tp52
F1
sa(dp53
(F0.33000000000000002
F0.25
tp54
F1
saF0.40000000000000002
tp55
a((lp56
(dp57
(F0.80000000000000004
F0.80000000000000004
tp58
F1
sa(dp59
(F0.45000000000000001
F0.80000000000000004
tp60
F1
sa(dp61
(F0.33000000000000002
F0.25
tp62
F1
sa(dp63
(F0.33000000000000002
F0.59999999999999998
tp64
F1
sa(dp65
(F0.33000000000000002
F0.25
tp66
F1
saF0.60000000000000009
tp67
a((lp68
(dp69
(F0.80000000000000004
F0.80000000000000004
tp70
F1
sa(dp71
(F0.45000000000000001
F0.80000000000000004
tp72
F1
sa(dp73
(F0.33000000000000002
F0.25
tp74
F1
sa(dp75
(F0.33000000000000002
F0.59999999999999998
tp76
F1
sa(dp77
(F0.33000000000000002
F0.25
tp78
F1
saF0.80000000000000004
tp79
a((lp80
(dp81
(F0.45000000000000001
F0.80000000000000004
tp82
F1
sa(dp83
(F0.80000000000000004
F0.25
tp84
F1
sa(dp85
(F0.33000000000000002
F0.25
tp86
F1
sa(dp87
(F0.33000000000000002
F0.59999999999999998
tp88
F1
sa(dp89
(F0.33000000000000002
F0.25
tp90
F1
saI1
tp91
a((lp92
(dp93
(F0.45000000000000001
F0.80000000000000004
tp94
F1
sa(dp95
(F0.33000000000000002
F0.25
tp96
F1
sa(dp97
(F0.33000000000000002
F0.59999999999999998
tp98
F1
sa(dp99
(F0.33000000000000002
F0.25
tp100
F1
saI1
tp101
a((lp102
(dp103
(F0.45000000000000001
F0.59999999999999998
tp104
F1
sa(dp105
(F0.33000000000000002
F0.25
tp106
F1
sa(dp107
(F0.33000000000000002
F0.40000000000000002
tp108
F1
sa(dp109
(F0.33000000000000002
F0.25
tp110
F1
saI1
tp111
a((lp112
(dp113
(F0.45000000000000001
F0.80000000000000004
tp114
F1
sa(dp115
(F0.33000000000000002
F0.25
tp116
F1
sa(dp117
(F0.33000000000000002
F0.59999999999999998
tp118
F1
sa(dp119
(F0.33000000000000002
F0.25
tp120
F1
saI1
tp121
a((lp122
(dp123
(F0.80000000000000004
F0.25
tp124
F1
sa(dp125
(F0.45000000000000001
F0.25
tp126
F1
sa(dp127
(F0.33000000000000002
F0.25
tp128
F1
sa(dp129
(F0.33000000000000002
F0.59999999999999998
tp130
F1
sa(dp131
(F0.33000000000000002
F0.25
tp132
F1
saI1
tp133
a((lp134
(dp135
(F0.45000000000000001
F0.25
tp136
F1
sa(dp137
(F0.80000000000000004
F0.25
tp138
F1
sa(dp139
(F0.33000000000000002
F0.25
tp140
F1
sa(dp141
(F0.33000000000000002
F0.59999999999999998
tp142
F1
sa(dp143
(F0.33000000000000002
F0.25
tp144
F1
saI1
tp145
a((lp146
(dp147
(F0.45000000000000001
F0.25
tp148
F1
sa(dp149
(F0.80000000000000004
F0.25
tp150
F1
sa(dp151
(F0.33000000000000002
F0.25
tp152
F1
sa(dp153
(F0.33000000000000002
F0.59999999999999998
tp154
F1
sa(dp155
(F0.33000000000000002
F0.25
tp156
F1
saI1
tp157
a((lp158
(dp159
(F0.80000000000000004
F0.25
tp160
F1
sa(dp161
(F0.45000000000000001
F0.25
tp162
F1
sa(dp163
(F0.33000000000000002
F0.25
tp164
F1
sa(dp165
(F0.33000000000000002
F0.59999999999999998
tp166
F1
sa(dp167
(F0.33000000000000002
F0.25
tp168
F1
saI1
tp169
a((lp170
(dp171
(F0.45000000000000001
F0.25
tp172
F1
sa(dp173
(F0.80000000000000004
F0.25
tp174
F1
sa(dp175
(F0.33000000000000002
F0.25
tp176
F1
sa(dp177
(F0.33000000000000002
F0.59999999999999998
tp178
F1
sa(dp179
(F0.33000000000000002
F0.25
tp180
F1
saI1
tp181
a((lp182
(dp183
(F0.45000000000000001
F0.25
tp184
F1
sa(dp185
(F0.80000000000000004
F0.25
tp186
F1
sa(dp187
(F0.33000000000000002
F0.25
tp188
F1
sa(dp189
(F0.33000000000000002
F0.59999999999999998
tp190
F1
sa(dp191
(F0.33000000000000002
F0.25
tp192
F1
saI1
tp193
a((lp194
(dp195
(F0.45000000000000001
F0.25
tp196
F1
sa(dp197
(F0.33000000000000002
F0.25
tp198
F1
sa(dp199
(F0.33000000000000002
F0.59999999999999998
tp200
F1
sa(dp201
(F0.33000000000000002
F0.25
tp202
F1
saI1
tp203
a((lp204
(dp205
(F0.45000000000000001
F0.80000000000000004
tp206
F1
sa(dp207
(F0.33000000000000002
F0.25
tp208
F1
sa(dp209
(F0.33000000000000002
F0.59999999999999998
tp210
F1
sa(dp211
(F0.33000000000000002
F0.25
tp212
F1
saF0.40000000000000002
tp213
a((lp214
(dp215
(F0.45000000000000001
F0.59999999999999998
tp216
F1
sa(dp217
(F0.33000000000000002
F0.25
tp218
F1
sa(dp219
(F0.33000000000000002
F0.40000000000000002
tp220
F1
sa(dp221
(F0.33000000000000002
F0.25
tp222
F1
saI0
tp223
a.