(lp1
((lp2
(dp3
(F0.45000000000000001
F0.59999999999999998
tp4
F1
sa(dp5
(F0.33000000000000002
F0.25
tp6
F1
sa(dp7
(F0.33000000000000002
F0.40000000000000002
tp8
F1
sa(dp9
(F0.33000000000000002
F0.25
tp10
F1
saI0
tp11
a((lp12
(dp13
(F0.45000000000000001
F0.80000000000000004
tp14
F1
sa(dp15
(F0.33000000000000002
F0.25
tp16
F1
sa(dp17
(F0.33000000000000002
F0.59999999999999998
tp18
F1
sa(dp19
(F0.33000000000000002
F0.25
tp20
F1
saI0
tp21
a((lp22
(dp23
(F0.45000000000000001
F0.25
tp24
F1
sa(dp25
(F0.33000000000000002
F0.25
tp26
F1
sa(dp27
(F0.33000000000000002
F0.59999999999999998
tp28
F1
sa(dp29
(F0.33000000000000002
F0.25
tp30
F1
saI0
tp31
a((lp32
(dp33
(F0.45000000000000001
F0.80000000000000004
tp34
F1
sa(dp35
(F0.33000000000000002
F0.25
tp36
F1
sa(dp37
(F0.33000000000000002
F0.59999999999999998
tp38
F1
sa(dp39
(F0.33000000000000002
F0.25
tp40
F1
saI0
tp41
a((lp42
(dp43
(F0.45000000000000001
F0.59999999999999998
tp44
F1
sa(dp45
(F0.33000000000000002
F0.25
tp46
F1
sa(dp47
(F0.33000000000000002
F0.40000000000000002
tp48
F1
sa(dp49
(F0.33000000000000002
F0.25
tp50
F1
saI0
tp51
a((lp52
(dp53
(F0.45000000000000001
F0.80000000000000004
tp54
F1
sa(dp55
(F0.33000000000000002
F0.25
tp56
F1
sa(dp57
(F0.33000000000000002
F0.59999999999999998
tp58
F1
sa(dp59
(F0.33000000000000002
F0.25
tp60
F1
saI0
tp61
a((lp62
(dp63
(F0.45000000000000001
F0.25
tp64
F1
sa(dp65
(F0.33000000000000002
F0.25
tp66
F1
sa(dp67
(F0.33000000000000002
F0.59999999999999998
tp68
F1
sa(dp69
(F0.33000000000000002
F0.25
tp70
F1
saI0
tp71
a((lp72
(dp73
(F0.45000000000000001
F0.80000000000000004
tp74
F1
sa(dp75
(F0.33000000000000002
F0.25
tp76
F1
sa(dp77
(F0.33000000000000002
F0.59999999999999998
tp78
F1
sa(dp79
(F0.33000000000000002
F0.25
tp80
F1
saI0
tp81
a((lp82
(dp83
(F0.45000000000000001
F0.59999999999999998
tp84
F1
sa(dp85
(F0.33000000000000002
F0.25
tp86
F1
sa(dp87
(F0.33000000000000002
F0.40000000000000002
tp88
F1
sa(dp89
(F0.33000000000000002
F0.25
tp90
F1
saI0
tp91
a((lp92
(dp93
(F0.45000000000000001
F0.80000000000000004
tp94
F1
sa(dp95
(F0.33000000000000002
F0.25
tp96
F1
sa(dp97
(F0.33000000000000002
F0.59999999999999998
tp98
F1
sa(dp99
(F0.33000000000000002
F0.25
tp100
F1
saI0
tp101
a((lp102
(dp103
(F0.45000000000000001
F0.25
tp104
F1
sa(dp105
(F0.33000000000000002
F0.25
tp106
F1
sa(dp107
(F0.33000000000000002
F0.59999999999999998
tp108
F1
sa(dp109
(F0.33000000000000002
F0.25
tp110
F1
saI0
tp111
a((lp112
(dp113
(F0.45000000000000001
F0.80000000000000004
tp114
F1
sa(dp115
(F0.33000000000000002
F0.25
tp116
F1
sa(dp117
(F0.33000000000000002
F0.59999999999999998
tp118
F1
sa(dp119
(F0.33000000000000002
F0.25
tp120
F1
saI0
tp121
a((lp122
(dp123
(F0.45000000000000001
F0.59999999999999998
tp124
F1
sa(dp125
(F0.33000000000000002
F0.25
tp126
F1
sa(dp127
(F0.33000000000000002
F0.40000000000000002
tp128
F1
sa(dp129
(F0.33000000000000002
F0.25
tp130
F1
saI0
tp131
a((lp132
(dp133
(F0.45000000000000001
F0.80000000000000004
tp134
F1
sa(dp135
(F0.33000000000000002
F0.25
tp136
F1
sa(dp137
(F0.33000000000000002
F0.59999999999999998
tp138
F1
sa(dp139
(F0.33000000000000002
F0.25
tp140
F1
saI0
tp141
a((lp142
(dp143
(F0.45000000000000001
F0.25
tp144
F1
sa(dp145
(F0.33000000000000002
F0.25
tp146
F1
sa(dp147
(F0.33000000000000002
F0.59999999999999998
tp148
F1
sa(dp149
(F0.33000000000000002
F0.25
tp150
F1
saI0
tp151
a((lp152
(dp153
(F0.45000000000000001
F0.80000000000000004
tp154
F1
sa(dp155
(F0.33000000000000002
F0.25
tp156
F1
sa(dp157
(F0.33000000000000002
F0.59999999999999998
tp158
F1
sa(dp159
(F0.33000000000000002
F0.25
tp160
F1
saI0
tp161
a((lp162
(dp163
(F0.45000000000000001
F0.59999999999999998
tp164
F1
sa(dp165
(F0.33000000000000002
F0.25
tp166
F1
sa(dp167
(F0.33000000000000002
F0.40000000000000002
tp168
F1
sa(dp169
(F0.33000000000000002
F0.25
tp170
F1
saI0
tp171
a((lp172
(dp173
(F0.45000000000000001
F0.80000000000000004
tp174
F1
sa(dp175
(F0.33000000000000002
F0.25
tp176
F1
sa(dp177
(F0.33000000000000002
F0.59999999999999998
tp178
F1
sa(dp179
(F0.33000000000000002
F0.25
tp180
F1
saI0
tp181
a((lp182
(dp183
(F0.45000000000000001
F0.25
tp184
F1
sa(dp185
(F0.33000000000000002
F0.25
tp186
F1
sa(dp187
(F0.33000000000000002
F0.59999999999999998
tp188
F1
sa(dp189
(F0.33000000000000002
F0.25
tp190
F1
saI0
tp191
a((lp192
(dp193
(F0.45000000000000001
F0.80000000000000004
tp194
F1
sa(dp195
(F0.33000000000000002
F0.25
tp196
F1
sa(dp197
(F0.33000000000000002
F0.59999999999999998
tp198
F1
sa(dp199
(F0.33000000000000002
F0.25
tp200
F1
saI0
tp201
a.