(lp1
((lp2
(dp3
(F0.45000000000000001
F0.59999999999999998
tp4
F1
sa(dp5
(F0.33000000000000002
F0.25
tp6
F1
sa(dp7
(F0.33000000000000002
F0.40000000000000002
tp8
F1
sa(dp9
(F0.33000000000000002
F0.25
tp10
F1
saI0
tp11
a((lp12
(dp13
(F0.45000000000000001
F0.80000000000000004
tp14
F1
sa(dp15
(F0.33000000000000002
F0.25
tp16
F1
sa(dp17
(F0.33000000000000002
F0.59999999999999998
tp18
F1
sa(dp19
(F0.33000000000000002
F0.25
tp20
F1
saI0
tp21
a((lp22
(dp23
(F0.45000000000000001
F0.25
tp24
F1
sa(dp25
(F0.33000000000000002
F0.25
tp26
F1
sa(dp27
(F0.80000000000000004
F0.59999999999999998
tp28
F1
sa(dp29
(F0.33000000000000002
F0.59999999999999998
tp30
F1
sa(dp31
(F0.33000000000000002
F0.25
tp32
F1
saF0.20000000000000001
tp33
a((lp34
(dp35
(F0.45000000000000001
F0.25
tp36
F1
sa(dp37
(F0.80000000000000004
F0.25
tp38
F1
sa(dp39
(F0.33000000000000002
F0.25
tp40
F1
sa(dp41
(F0.33000000000000002
F0.59999999999999998
tp42
F1
sa(dp43
(F0.33000000000000002
F0.25
tp44
F1
saF0.40000000000000002
tp45
a((lp46
(dp47
(F0.45000000000000001
F0.25
tp48
F1
sa(dp49
(F0.33000000000000002
F0.25
tp50
F1
sa(dp51
(F0.80000000000000004
F0.59999999999999998
tp52
F1
sa(dp53
(F0.33000000000000002
F0.59999999999999998
tp54
F1
sa(dp55
(F0.33000000000000002
F0.25
tp56
F1
saF0.60000000000000009
tp57
a((lp58
(dp59
(F0.45000000000000001
F0.25
tp60
F1
sa(dp61
(F0.33000000000000002
F0.25
tp62
F1
sa(dp63
(F0.80000000000000004
F0.59999999999999998
tp64
F1
sa(dp65
(F0.33000000000000002
F0.59999999999999998
tp66
F1
sa(dp67
(F0.33000000000000002
F0.25
tp68
F1
saF0.80000000000000004
tp69
a((lp70
(dp71
(F0.45000000000000001
F0.25
tp72
F1
sa(dp73
(F0.80000000000000004
F0.25
tp74
F1
sa(dp75
(F0.33000000000000002
F0.25
tp76
F1
sa(dp77
(F0.33000000000000002
F0.59999999999999998
tp78
F1
sa(dp79
(F0.33000000000000002
F0.25
tp80
F1
saI1
tp81
a((lp82
(dp83
(F0.45000000000000001
F0.25
tp84
F1
sa(dp85
(F0.33000000000000002
F0.25
tp86
F1
sa(dp87
(F0.33000000000000002
F0.59999999999999998
tp88
F1
sa(dp89
(F0.33000000000000002
F0.25
tp90
F1
saI1
tp91
a((lp92
(dp93
(F0.45000000000000001
F0.80000000000000004
tp94
F1
sa(dp95
(F0.33000000000000002
F0.25
tp96
F1
sa(dp97
(F0.33000000000000002
F0.59999999999999998
tp98
F1
sa(dp99
(F0.33000000000000002
F0.25
tp100
F1
saI1
tp101
a((lp102
(dp103
(F0.45000000000000001
F0.59999999999999998
tp104
F1
sa(dp105
(F0.80000000000000004
F0.25
tp106
F1
sa(dp107
(F0.33000000000000002
F0.25
tp108
F1
sa(dp109
(F0.33000000000000002
F0.40000000000000002
tp110
F1
sa(dp111
(F0.33000000000000002
F0.25
tp112
F1
saI1
tp113
a((lp114
(dp115
(F0.45000000000000001
F0.59999999999999998
tp116
F1
sa(dp117
(F0.33000000000000002
F0.25
tp118
F1
sa(dp119
(F0.33000000000000002
F0.40000000000000002
tp120
F1
sa(dp121
(F0.33000000000000002
F0.25
tp122
F1
saI1
tp123
a((lp124
(dp125
(F0.45000000000000001
F0.80000000000000004
tp126
F1
sa(dp127
(F0.80000000000000004
F0.25
tp128
F1
sa(dp129
(F0.33000000000000002
F0.25
tp130
F1
sa(dp131
(F0.33000000000000002
F0.59999999999999998
tp132
F1
sa(dp133
(F0.33000000000000002
F0.25
tp134
F1
saI1
tp135
a((lp136
(dp137
(F0.80000000000000004
F0.80000000000000004
tp138
F1
sa(dp139
(F0.45000000000000001
F0.80000000000000004
tp140
F1
sa(dp141
(F0.33000000000000002
F0.25
tp142
F1
sa(dp143
(F0.33000000000000002
F0.59999999999999998
tp144
F1
sa(dp145
(F0.33000000000000002
F0.25
tp146
F1
saI1
tp147
a((lp148
(dp149
(F0.80000000000000004
F0.80000000000000004
tp150
F1
sa(dp151
(F0.45000000000000001
F0.80000000000000004
tp152
F1
sa(dp153
(F0.33000000000000002
F0.25
tp154
F1
sa(dp155
(F0.33000000000000002
F0.59999999999999998
tp156
F1
sa(dp157
(F0.33000000000000002
F0.25
tp158
F1
saI1
tp159
a((lp160
(dp161
(F0.80000000000000004
F0.80000000000000004
tp162
F1
sa(dp163
(F0.45000000000000001
F0.80000000000000004
tp164
F1
sa(dp165
(F0.33000000000000002
F0.25
tp166
F1
sa(dp167
(F0.33000000000000002
F0.59999999999999998
tp168
F1
sa(dp169
(F0.33000000000000002
F0.25
tp170
F1
saI1
tp171
a((lp172
(dp173
(F0.45000000000000001
F0.80000000000000004
tp174
F1
sa(dp175
(F0.33000000000000002
F0.25
tp176
F1
sa(dp177
(F0.33000000000000002
F0.59999999999999998
tp178
F1
sa(dp179
(F0.80000000000000004
F0.25
tp180
F1
sa(dp181
(F0.33000000000000002
F0.25
tp182
F1
saI1
tp183
a((lp184
(dp185
(F0.45000000000000001
F0.80000000000000004
tp186
F1
sa(dp187
(F0.33000000000000002
F0.25
tp188
F1
sa(dp189
(F0.33000000000000002
F0.59999999999999998
tp190
F1
sa(dp191
(F0.80000000000000004
F0.25
tp192
F1
sa(dp193
(F0.33000000000000002
F0.25
tp194
F1
saI1
tp195
a((lp196
(dp197
(F0.45000000000000001
F0.80000000000000004
tp198
F1
sa(dp199
(F0.33000000000000002
F0.25
tp200
F1
sa(dp201
(F0.33000000000000002
F0.59999999999999998
tp202
F1
sa(dp203
(F0.33000000000000002
F0.25
tp204
F1
saI1
tp205
a((lp206
(dp207
(F0.45000000000000001
F0.25
tp208
F1
sa(dp209
(F0.33000000000000002
F0.25
tp210
F1
sa(dp211
(F0.33000000000000002
F0.59999999999999998
tp212
F1
sa(dp213
(F0.33000000000000002
F0.25
tp214
F1
saF0.60000000000000009
tp215
a((lp216
(dp217
(F0.45000000000000001
F0.80000000000000004
tp218
F1
sa(dp219
(F0.33000000000000002
F0.25
tp220
F1
sa(dp221
(F0.33000000000000002
F0.59999999999999998
tp222
F1
sa(dp223
(F0.33000000000000002
F0.25
tp224
F1
saI0
tp225
a.