(lp1
(lp2
(dp3
(F0.45000000000000001
F0.59999999999999998
tp4
F1
sa(dp5
(F0.33000000000000002
F0.25
tp6
F1
sa(dp7
(F0.33000000000000002
F0.40000000000000002
tp8
F1
sa(dp9
(F0.33000000000000002
F0.25
tp10
F1
saa(lp11
(dp12
(F0.45000000000000001
F0.80000000000000004
tp13
F1
sa(dp14
(F0.33000000000000002
F0.25
tp15
F1
sa(dp16
(F0.33000000000000002
F0.59999999999999998
tp17
F1
sa(dp18
(F0.33000000000000002
F0.25
tp19
F1
saa(lp20
(dp21
(F0.45000000000000001
F0.25
tp22
F1
sa(dp23
(F0.33000000000000002
F0.25
tp24
F1
sa(dp25
(F0.33000000000000002
F0.59999999999999998
tp26
F1
sa(dp27
(F0.33000000000000002
F0.25
tp28
F1
saa(lp29
(dp30
(F0.45000000000000001
F0.80000000000000004
tp31
F1
sa(dp32
(F0.33000000000000002
F0.25
tp33
F1
sa(dp34
(F0.33000000000000002
F0.59999999999999998
tp35
F1
sa(dp36
(F0.33000000000000002
F0.25
tp37
F1
saa(lp38
(dp39
(F0.45000000000000001
F0.59999999999999998
tp40
F1
sa(dp41
(F0.33000000000000002
F0.25
tp42
F1
sa(dp43
(F0.33000000000000002
F0.40000000000000002
tp44
F1
sa(dp45
(F0.33000000000000002
F0.25
tp46
F1
saa(lp47
(dp48
(F0.45000000000000001
F0.80000000000000004
tp49
F1
sa(dp50
(F0.33000000000000002
F0.25
tp51
F1
sa(dp52
(F0.33000000000000002
F0.59999999999999998
tp53
F1
sa(dp54
(F0.33000000000000002
F0.25
tp55
F1
saa(lp56
(dp57
(F0.45000000000000001
F0.25
tp58
F1
sa(dp59
(F0.80000000000000004
F0.25
tp60
F1
sa(dp61
(F0.33000000000000002
F0.25
tp62
F1
sa(dp63
(F0.33000000000000002
F0.59999999999999998
tp64
F1
sa(dp65
(F0.33000000000000002
F0.25
tp66
F1
saa(lp67
(dp68
(F0.45000000000000001
F0.25
tp69
F1
sa(dp70
(F0.33000000000000002
F0.25
tp71
F1
sa(dp72
(F0.33000000000000002
F0.59999999999999998
tp73
F1
sa(dp74
(F0.33000000000000002
F0.25
tp75
F1
saa(lp76
(dp77
(F0.45000000000000001
F0.25
tp78
F1
sa(dp79
(F0.33000000000000002
F0.25
tp80
F1
sa(dp81
(F0.33000000000000002
F0.59999999999999998
tp82
F1
sa(dp83
(F0.80000000000000004
F0.25
tp84
F1
sa(dp85
(F0.33000000000000002
F0.25
tp86
F1
saa(lp87
(dp88
(F0.45000000000000001
F0.25
tp89
F1
sa(dp90
(F0.33000000000000002
F0.25
tp91
F1
sa(dp92
(F0.33000000000000002
F0.59999999999999998
tp93
F1
sa(dp94
(F0.80000000000000004
F0.25
tp95
F1
sa(dp96
(F0.33000000000000002
F0.25
tp97
F1
saa(lp98
(dp99
(F0.45000000000000001
F0.25
tp100
F1
sa(dp101
(F0.80000000000000004
F0.25
tp102
F1
sa(dp103
(F0.33000000000000002
F0.25
tp104
F1
sa(dp105
(F0.33000000000000002
F0.59999999999999998
tp106
F1
sa(dp107
(F0.80000000000000004
F0.25
tp108
F1
sa(dp109
(F0.33000000000000002
F0.25
tp110
F1
saa.